target datalayout = "e-m:e-p270:32:32-p271:32:32-p272:64:64-i64:64-i128:128-f80:128-n8:16:32:64-S128"
target triple = "x86_64-pc-linux-gnu"

; Function Attrs: nounwind uwtable
define dso_local i64 @uv_handle_size(i32 noundef %0) #0 {
  %2 = alloca i64, align 8
  %3 = alloca i32, align 4
  store i32 %0, ptr %3, align 4, !tbaa !15
  %4 = load i32, ptr %3, align 4, !tbaa !15
  switch i32 %4, label %21 [
    i32 1, label %5
    i32 2, label %6
    i32 3, label %7
    i32 4, label %8
    i32 5, label %9
    i32 6, label %10
    i32 7, label %11
    i32 8, label %12
    i32 9, label %13
    i32 10, label %14
    i32 11, label %15
    i32 12, label %16
    i32 13, label %17
    i32 14, label %18
    i32 15, label %19
    i32 16, label %20
  ]

5:                                                ; preds = %1
  store i64 128, ptr %2, align 8
  br label %22

6:                                                ; preds = %1
  store i64 120, ptr %2, align 8
  br label %22

7:                                                ; preds = %1
  store i64 136, ptr %2, align 8
  br label %22

8:                                                ; preds = %1
  store i64 104, ptr %2, align 8
  br label %22

9:                                                ; preds = %1
  store i64 96, ptr %2, align 8
  br label %22

10:                                               ; preds = %1
  store i64 120, ptr %2, align 8
  br label %22

11:                                               ; preds = %1
  store i64 264, ptr %2, align 8
  br label %22

12:                                               ; preds = %1
  store i64 160, ptr %2, align 8
  br label %22

13:                                               ; preds = %1
  store i64 120, ptr %2, align 8
  br label %22

14:                                               ; preds = %1
  store i64 136, ptr %2, align 8
  br label %22

15:                                               ; preds = %1
  store i64 248, ptr %2, align 8
  br label %22

16:                                               ; preds = %1
  store i64 248, ptr %2, align 8
  br label %22

17:                                               ; preds = %1
  store i64 152, ptr %2, align 8
  br label %22

18:                                               ; preds = %1
  store i64 312, ptr %2, align 8
  br label %22

19:                                               ; preds = %1
  store i64 216, ptr %2, align 8
  br label %22

20:                                               ; preds = %1
  store i64 152, ptr %2, align 8
  br label %22

21:                                               ; preds = %1
  store i64 -1, ptr %2, align 8
  br label %22

22:                                               ; preds = %21, %20, %19, %18, %17, %16, %15, %14, %13, %12, %11, %10, %9, %8, %7, %6, %5
  %23 = load i64, ptr %2, align 8
  ret i64 %23
}